target datalayout = "e-m:e-p270:32:32-p271:32:32-p272:64:64-i64:64-i128:128-f80:128-n8:16:32:64-S128"
target triple = "x86_64-unknown-linux-gnu"

%"class.std::set.0" = type { %"class.std::_Rb_tree.1" }
%"class.std::_Rb_tree.1" = type { %"struct.std::_Rb_tree<QuantLib::Observer *, QuantLib::Observer *, std::_Identity<QuantLib::Observer *>, std::less<QuantLib::Observer *>>::_Rb_tree_impl" }
%"struct.std::_Rb_tree<QuantLib::Observer *, QuantLib::Observer *, std::_Identity<QuantLib::Observer *>, std::less<QuantLib::Observer *>>::_Rb_tree_impl" = type { [8 x i8], %"struct.std::_Rb_tree_header" }
%"struct.std::_Rb_tree_header" = type { %"struct.std::_Rb_tree_node_base", i64 }
%"struct.std::_Rb_tree_node_base" = type { i32, ptr, ptr, ptr }
%"class.std::set" = type { %"class.std::_Rb_tree" }
%"class.std::_Rb_tree" = type { %"struct.std::_Rb_tree<boost::shared_ptr<QuantLib::Observable>, boost::shared_ptr<QuantLib::Observable>, std::_Identity<boost::shared_ptr<QuantLib::Observable>>, std::less<boost::shared_ptr<QuantLib::Observable>>>::_Rb_tree_impl" }
%"struct.std::_Rb_tree<boost::shared_ptr<QuantLib::Observable>, boost::shared_ptr<QuantLib::Observable>, std::_Identity<boost::shared_ptr<QuantLib::Observable>>, std::less<boost::shared_ptr<QuantLib::Observable>>>::_Rb_tree_impl" = type { [8 x i8], %"struct.std::_Rb_tree_header" }
%"class.boost::detail::shared_count" = type { ptr }
%"class.QuantLib::Observable" = type { ptr, %"class.std::set.0" }
%"class.QuantLib::DayCounter" = type { %"class.boost::shared_ptr.6" }
%"class.boost::shared_ptr.6" = type { ptr, %"class.boost::detail::shared_count" }
%"class.QuantLib::Observer" = type { ptr, %"class.std::set" }
%"class.boost::shared_ptr.40" = type { ptr, %"class.boost::detail::shared_count" }
%"class.QuantLib::GeneralizedBlackScholesProcess" = type <{ %"class.QuantLib::StochasticProcess1D", %"class.QuantLib::Handle", %"class.QuantLib::Handle.33", %"class.QuantLib::Handle.33", %"class.QuantLib::Handle.35", %"class.QuantLib::Handle.37", i8, i8, [6 x i8], %"class.QuantLib::RelinkableHandle", i8, i8, [6 x i8] }>
%"class.QuantLib::StochasticProcess1D" = type { %"class.QuantLib::StochasticProcess", %"class.boost::shared_ptr.40" }
%"class.QuantLib::StochasticProcess" = type { %"class.QuantLib::Observer", %"class.QuantLib::Observable", %"class.boost::shared_ptr.39" }
%"class.boost::shared_ptr.39" = type { ptr, %"class.boost::detail::shared_count" }
%"class.QuantLib::Handle" = type { %"class.boost::shared_ptr.15" }
%"class.boost::shared_ptr.15" = type { ptr, %"class.boost::detail::shared_count" }
%"class.QuantLib::Handle.33" = type { %"class.boost::shared_ptr.34" }
%"class.boost::shared_ptr.34" = type { ptr, %"class.boost::detail::shared_count" }
%"class.QuantLib::Handle.35" = type { %"class.boost::shared_ptr.36" }
%"class.boost::shared_ptr.36" = type { ptr, %"class.boost::detail::shared_count" }
%"class.QuantLib::Handle.37" = type { %"class.boost::shared_ptr.38" }
%"class.boost::shared_ptr.38" = type { ptr, %"class.boost::detail::shared_count" }
%"class.QuantLib::RelinkableHandle" = type { %"class.QuantLib::Handle.37" }
%"class.QuantLib::InterestRate" = type { double, %"class.QuantLib::DayCounter", i32, i8, double }
%"class.boost::shared_ptr.43" = type { ptr, %"class.boost::detail::shared_count" }

@.str.9 = private unnamed_addr constant [8 x i8] c"px != 0\00", align 1
@.str.10 = private unnamed_addr constant [102 x i8] c"generated/home/dtcxzyw/WorkSpace/SDK/vcpkg/installed/x64-linux/include/boost/smart_ptr/shared_ptr.hpp\00", align 1
@__PRETTY_FUNCTION__._ZNK5boost10shared_ptrIN8QuantLib18YieldTermStructureEEptEv = private unnamed_addr constant [153 x i8] c"typename boost::detail::sp_member_access<T>::type boost::shared_ptr<QuantLib::YieldTermStructure>::operator->() const [T = QuantLib::YieldTermStructure]\00", align 1

; Function Attrs: mustprogress nounwind uwtable
define linkonce_odr noundef double @_ZNK8QuantLib12InterestRate4rateEv(ptr noundef nonnull align 8 dereferenceable(40) %this) #1 comdat align 2 {
entry:
  %this.addr = alloca ptr, align 8
  store ptr %this, ptr %this.addr, align 8, !tbaa !3
  %this1 = load ptr, ptr %this.addr, align 8
  %r_ = getelementptr inbounds nuw %"class.QuantLib::InterestRate", ptr %this1, i32 0, i32 0
  %0 = load double, ptr %r_, align 8, !tbaa !75
  ret double %0
}

; Function Attrs: mustprogress uwtable
define linkonce_odr noundef ptr @_ZNK5boost10shared_ptrIN8QuantLib18YieldTermStructureEEptEv(ptr noundef nonnull align 8 dereferenceable(16) %this) #2 comdat align 2 {
entry:
  %this.addr = alloca ptr, align 8
  store ptr %this, ptr %this.addr, align 8, !tbaa !3
  %this1 = load ptr, ptr %this.addr, align 8
  %px = getelementptr inbounds nuw %"class.boost::shared_ptr.43", ptr %this1, i32 0, i32 0
  %0 = load ptr, ptr %px, align 8, !tbaa !73
  %cmp = icmp ne ptr %0, null
  %lnot = xor i1 %cmp, true
  %lnot2 = xor i1 %lnot, true
  %conv = zext i1 %lnot2 to i64
  %expval = call i64 @llvm.expect.i64(i64 %conv, i64 1)
  %tobool = icmp ne i64 %expval, 0
  br i1 %tobool, label %cond.true, label %cond.false

cond.true:                                        ; preds = %entry
  br label %cond.end

cond.false:                                       ; preds = %entry
  call void @_ZN5boost16assertion_failedEPKcS1_S1_l(ptr noundef @.str.9, ptr noundef @__PRETTY_FUNCTION__._ZNK5boost10shared_ptrIN8QuantLib18YieldTermStructureEEptEv, ptr noundef @.str.10, i64 noundef 784)
  br label %cond.end

cond.end:                                         ; preds = %cond.false, %cond.true
  %px3 = getelementptr inbounds nuw %"class.boost::shared_ptr.43", ptr %this1, i32 0, i32 0
  %1 = load ptr, ptr %px3, align 8, !tbaa !73
  ret ptr %1
}

; Function Attrs: mustprogress uwtable
define noundef double @_ZNK8QuantLib30GeneralizedBlackScholesProcess5driftEdd(ptr noundef nonnull align 8 dereferenceable(250) %this, double noundef %t, double noundef %x) unnamed_addr #2 align 2 personality ptr @__gxx_personality_v0 {
entry:
  %this.addr = alloca ptr, align 8
  %t.addr = alloca double, align 8
  %x.addr = alloca double, align 8
  %sigma = alloca double, align 8
  %t1 = alloca double, align 8
  %ref.tmp = alloca %"class.QuantLib::InterestRate", align 8
  %exn.slot = alloca ptr, align 8
  %ehselector.slot = alloca i32, align 4
  %ref.tmp5 = alloca %"class.QuantLib::InterestRate", align 8
  store ptr %this, ptr %this.addr, align 8, !tbaa !3
  store double %t, ptr %t.addr, align 8, !tbaa !72
  store double %x, ptr %x.addr, align 8, !tbaa !72
  %this1 = load ptr, ptr %this.addr, align 8
  call void @llvm.lifetime.start.p0(i64 8, ptr %sigma) #17
  %0 = load double, ptr %t.addr, align 8, !tbaa !72
  %1 = load double, ptr %x.addr, align 8, !tbaa !72
  %vtable = load ptr, ptr %this1, align 8, !tbaa !25
  %vfn = getelementptr inbounds ptr, ptr %vtable, i64 17
  %2 = load ptr, ptr %vfn, align 8
  %call = call noundef double %2(ptr noundef nonnull align 8 dereferenceable(250) %this1, double noundef %0, double noundef %1)
  store double %call, ptr %sigma, align 8, !tbaa !72
  call void @llvm.lifetime.start.p0(i64 8, ptr %t1) #17
  %3 = load double, ptr %t.addr, align 8, !tbaa !72
  %add = fadd double %3, 1.000000e-04
  store double %add, ptr %t1, align 8, !tbaa !72
  call void @llvm.lifetime.start.p0(i64 40, ptr %ref.tmp) #17
  %riskFreeRate_ = getelementptr inbounds nuw %"class.QuantLib::GeneralizedBlackScholesProcess", ptr %this1, i32 0, i32 2
  %call2 = call noundef nonnull align 8 dereferenceable(16) ptr @_ZNK8QuantLib6HandleINS_18YieldTermStructureEEptEv(ptr noundef nonnull align 8 dereferenceable(16) %riskFreeRate_)
  %call3 = call noundef ptr @_ZNK5boost10shared_ptrIN8QuantLib18YieldTermStructureEEptEv(ptr noundef nonnull align 8 dereferenceable(16) %call2)
  %4 = load double, ptr %t.addr, align 8, !tbaa !72
  %5 = load double, ptr %t1, align 8, !tbaa !72
  call void @_ZNK8QuantLib18YieldTermStructure11forwardRateEddNS_11CompoundingENS_9FrequencyEb(ptr dead_on_unwind writable sret(%"class.QuantLib::InterestRate") align 8 %ref.tmp, ptr noundef nonnull align 8 dereferenceable(152) %call3, double noundef %4, double noundef %5, i32 noundef 2, i32 noundef -1, i1 noundef zeroext true)
  %call4 = invoke noundef double @_ZNK8QuantLib12InterestRate4rateEv(ptr noundef nonnull align 8 dereferenceable(40) %ref.tmp)
          to label %invoke.cont unwind label %lpad

invoke.cont:                                      ; preds = %entry
  call void @llvm.lifetime.start.p0(i64 40, ptr %ref.tmp5) #17
  %dividendYield_ = getelementptr inbounds nuw %"class.QuantLib::GeneralizedBlackScholesProcess", ptr %this1, i32 0, i32 3
  %call8 = invoke noundef nonnull align 8 dereferenceable(16) ptr @_ZNK8QuantLib6HandleINS_18YieldTermStructureEEptEv(ptr noundef nonnull align 8 dereferenceable(16) %dividendYield_)
          to label %invoke.cont7 unwind label %lpad6

invoke.cont7:                                     ; preds = %invoke.cont
  %call10 = invoke noundef ptr @_ZNK5boost10shared_ptrIN8QuantLib18YieldTermStructureEEptEv(ptr noundef nonnull align 8 dereferenceable(16) %call8)
          to label %invoke.cont9 unwind label %lpad6

invoke.cont9:                                     ; preds = %invoke.cont7
  %6 = load double, ptr %t.addr, align 8, !tbaa !72
  %7 = load double, ptr %t1, align 8, !tbaa !72
  invoke void @_ZNK8QuantLib18YieldTermStructure11forwardRateEddNS_11CompoundingENS_9FrequencyEb(ptr dead_on_unwind writable sret(%"class.QuantLib::InterestRate") align 8 %ref.tmp5, ptr noundef nonnull align 8 dereferenceable(152) %call10, double noundef %6, double noundef %7, i32 noundef 2, i32 noundef -1, i1 noundef zeroext true)
          to label %invoke.cont11 unwind label %lpad6

invoke.cont11:                                    ; preds = %invoke.cont9
  %call14 = invoke noundef double @_ZNK8QuantLib12InterestRate4rateEv(ptr noundef nonnull align 8 dereferenceable(40) %ref.tmp5)
          to label %invoke.cont13 unwind label %lpad12

invoke.cont13:                                    ; preds = %invoke.cont11
  %sub = fsub double %call4, %call14
  %8 = load double, ptr %sigma, align 8, !tbaa !72
  %mul = fmul double 5.000000e-01, %8
  %9 = load double, ptr %sigma, align 8, !tbaa !72
  %neg = fneg double %mul
  %10 = call double @llvm.fmuladd.f64(double %neg, double %9, double %sub)
  call void @_ZN8QuantLib12InterestRateD2Ev(ptr noundef nonnull align 8 dereferenceable(40) %ref.tmp5) #17
  call void @llvm.lifetime.end.p0(i64 40, ptr %ref.tmp5) #17
  call void @_ZN8QuantLib12InterestRateD2Ev(ptr noundef nonnull align 8 dereferenceable(40) %ref.tmp) #17
  call void @llvm.lifetime.end.p0(i64 40, ptr %ref.tmp) #17
  call void @llvm.lifetime.end.p0(i64 8, ptr %t1) #17
  call void @llvm.lifetime.end.p0(i64 8, ptr %sigma) #17
  ret double %10

lpad:                                             ; preds = %entry
  %11 = landingpad { ptr, i32 }
          cleanup
  %12 = extractvalue { ptr, i32 } %11, 0
  store ptr %12, ptr %exn.slot, align 8
  %13 = extractvalue { ptr, i32 } %11, 1
  store i32 %13, ptr %ehselector.slot, align 4
  br label %ehcleanup16

lpad6:                                            ; preds = %invoke.cont9, %invoke.cont7, %invoke.cont
  %14 = landingpad { ptr, i32 }
          cleanup
  %15 = extractvalue { ptr, i32 } %14, 0
  store ptr %15, ptr %exn.slot, align 8
  %16 = extractvalue { ptr, i32 } %14, 1
  store i32 %16, ptr %ehselector.slot, align 4
  br label %ehcleanup

lpad12:                                           ; preds = %invoke.cont11
  %17 = landingpad { ptr, i32 }
          cleanup
  %18 = extractvalue { ptr, i32 } %17, 0
  store ptr %18, ptr %exn.slot, align 8
  %19 = extractvalue { ptr, i32 } %17, 1
  store i32 %19, ptr %ehselector.slot, align 4
  call void @_ZN8QuantLib12InterestRateD2Ev(ptr noundef nonnull align 8 dereferenceable(40) %ref.tmp5) #17
  br label %ehcleanup

ehcleanup:                                        ; preds = %lpad12, %lpad6
  call void @llvm.lifetime.end.p0(i64 40, ptr %ref.tmp5) #17
  br label %ehcleanup16

ehcleanup16:                                      ; preds = %ehcleanup, %lpad
  call void @_ZN8QuantLib12InterestRateD2Ev(ptr noundef nonnull align 8 dereferenceable(40) %ref.tmp) #17
  call void @llvm.lifetime.end.p0(i64 40, ptr %ref.tmp) #17
  call void @llvm.lifetime.end.p0(i64 8, ptr %t1) #17
  call void @llvm.lifetime.end.p0(i64 8, ptr %sigma) #17
  br label %eh.resume

eh.resume:                                        ; preds = %ehcleanup16
  %exn = load ptr, ptr %exn.slot, align 8
  %sel = load i32, ptr %ehselector.slot, align 4
  %lpad.val = insertvalue { ptr, i32 } poison, ptr %exn, 0
  %lpad.val20 = insertvalue { ptr, i32 } %lpad.val, i32 %sel, 1
  resume { ptr, i32 } %lpad.val20
}