; Function Attrs: mustprogress uwtable
define noundef double @_ZNK8QuantLib30GeneralizedBlackScholesProcess5driftEdd(ptr noundef nonnull align 8 dereferenceable(250) %this, double noundef %t, double noundef %x) unnamed_addr #7 align 2 personality ptr @__gxx_personality_v0 {
entry:
  %ref.tmp = alloca %"class.QuantLib::InterestRate", align 8
  %ref.tmp5 = alloca %"class.QuantLib::InterestRate", align 8
  %vtable = load ptr, ptr %this, align 8, !tbaa !49
  %vfn = getelementptr inbounds i8, ptr %vtable, i64 136
  %0 = load ptr, ptr %vfn, align 8
  %call = tail call noundef double %0(ptr noundef nonnull align 8 dereferenceable(250) %this, double noundef %t, double noundef %x)
  %add = fadd double %t, 1.000000e-04
  call void @llvm.lifetime.start.p0(i64 40, ptr nonnull %ref.tmp) #29
  %riskFreeRate_ = getelementptr inbounds nuw i8, ptr %this, i64 160
  %call2 = tail call noundef nonnull align 8 dereferenceable(16) ptr @_ZNK8QuantLib6HandleINS_18YieldTermStructureEEptEv(ptr noundef nonnull align 8 dereferenceable(16) %riskFreeRate_)
  %1 = load ptr, ptr %call2, align 8, !tbaa !129
  %cmp.not.i = icmp eq ptr %1, null
  br i1 %cmp.not.i, label %cond.false.i, label %_ZNK5boost10shared_ptrIN8QuantLib18YieldTermStructureEEptEv.exit, !prof !128

cond.false.i:                                     ; preds = %entry
  tail call void @_ZN5boost16assertion_failedEPKcS1_S1_l(ptr noundef nonnull @.str.9, ptr noundef nonnull @__PRETTY_FUNCTION__._ZNK5boost10shared_ptrIN8QuantLib18YieldTermStructureEEptEv, ptr noundef nonnull @.str.10, i64 noundef 784)
  %.pre.i = load ptr, ptr %call2, align 8, !tbaa !129
  br label %_ZNK5boost10shared_ptrIN8QuantLib18YieldTermStructureEEptEv.exit

_ZNK5boost10shared_ptrIN8QuantLib18YieldTermStructureEEptEv.exit: ; preds = %entry, %cond.false.i
  %2 = phi ptr [ %1, %entry ], [ %.pre.i, %cond.false.i ]
  call void @_ZNK8QuantLib18YieldTermStructure11forwardRateEddNS_11CompoundingENS_9FrequencyEb(ptr dead_on_unwind nonnull writable sret(%"class.QuantLib::InterestRate") align 8 %ref.tmp, ptr noundef nonnull align 8 dereferenceable(152) %2, double noundef %t, double noundef %add, i32 noundef 2, i32 noundef -1, i1 noundef zeroext true)
  %3 = load double, ptr %ref.tmp, align 8, !tbaa !131
  call void @llvm.lifetime.start.p0(i64 40, ptr nonnull %ref.tmp5) #29
  %dividendYield_ = getelementptr inbounds nuw i8, ptr %this, i64 176
  %call8 = invoke noundef nonnull align 8 dereferenceable(16) ptr @_ZNK8QuantLib6HandleINS_18YieldTermStructureEEptEv(ptr noundef nonnull align 8 dereferenceable(16) %dividendYield_)
          to label %invoke.cont7 unwind label %lpad6

invoke.cont7:                                     ; preds = %_ZNK5boost10shared_ptrIN8QuantLib18YieldTermStructureEEptEv.exit
  %4 = load ptr, ptr %call8, align 8, !tbaa !129
  %cmp.not.i6 = icmp eq ptr %4, null
  br i1 %cmp.not.i6, label %cond.false.i7, label %invoke.cont9, !prof !128

cond.false.i7:                                    ; preds = %invoke.cont7
  invoke void @_ZN5boost16assertion_failedEPKcS1_S1_l(ptr noundef nonnull @.str.9, ptr noundef nonnull @__PRETTY_FUNCTION__._ZNK5boost10shared_ptrIN8QuantLib18YieldTermStructureEEptEv, ptr noundef nonnull @.str.10, i64 noundef 784)
          to label %.noexc unwind label %lpad6

.noexc:                                           ; preds = %cond.false.i7
  %.pre.i8 = load ptr, ptr %call8, align 8, !tbaa !129
  br label %invoke.cont9

invoke.cont9:                                     ; preds = %.noexc, %invoke.cont7
  %5 = phi ptr [ %4, %invoke.cont7 ], [ %.pre.i8, %.noexc ]
  invoke void @_ZNK8QuantLib18YieldTermStructure11forwardRateEddNS_11CompoundingENS_9FrequencyEb(ptr dead_on_unwind nonnull writable sret(%"class.QuantLib::InterestRate") align 8 %ref.tmp5, ptr noundef nonnull align 8 dereferenceable(152) %5, double noundef %t, double noundef %add, i32 noundef 2, i32 noundef -1, i1 noundef zeroext true)
          to label %invoke.cont11 unwind label %lpad6

invoke.cont11:                                    ; preds = %invoke.cont9
  %6 = load double, ptr %ref.tmp5, align 8, !tbaa !131
  %pn.i.i.i = getelementptr inbounds nuw i8, ptr %ref.tmp5, i64 16
  %7 = load ptr, ptr %pn.i.i.i, align 8, !tbaa !31
  %cmp.not.i.i.i.i = icmp eq ptr %7, null
  br i1 %cmp.not.i.i.i.i, label %_ZN8QuantLib12InterestRateD2Ev.exit, label %if.then.i.i.i.i

if.then.i.i.i.i:                                  ; preds = %invoke.cont11
  %use_count_.i.i.i.i.i = getelementptr inbounds nuw i8, ptr %7, i64 8
  %8 = atomicrmw sub ptr %use_count_.i.i.i.i.i, i32 1 acq_rel, align 4
  %cmp.i.i.i.i.i = icmp eq i32 %8, 1
  br i1 %cmp.i.i.i.i.i, label %if.then.i.i.i.i.i, label %_ZN8QuantLib12InterestRateD2Ev.exit

if.then.i.i.i.i.i:                                ; preds = %if.then.i.i.i.i
  %vtable.i.i.i.i.i = load ptr, ptr %7, align 8, !tbaa !49
  %vfn.i.i.i.i.i = getelementptr inbounds i8, ptr %vtable.i.i.i.i.i, i64 16
  %9 = load ptr, ptr %vfn.i.i.i.i.i, align 8
  invoke void %9(ptr noundef nonnull align 8 dereferenceable(16) %7)
          to label %.noexc.i.i.i.i unwind label %terminate.lpad.i.i.i.i

.noexc.i.i.i.i:                                   ; preds = %if.then.i.i.i.i.i
  %weak_count_.i.i.i.i.i.i = getelementptr inbounds nuw i8, ptr %7, i64 12
  %10 = atomicrmw sub ptr %weak_count_.i.i.i.i.i.i, i32 1 acq_rel, align 4
  %cmp.i.i.i.i.i.i = icmp eq i32 %10, 1
  br i1 %cmp.i.i.i.i.i.i, label %if.then.i.i.i.i.i.i, label %_ZN8QuantLib12InterestRateD2Ev.exit

if.then.i.i.i.i.i.i:                              ; preds = %.noexc.i.i.i.i
  %vtable.i.i.i.i.i.i = load ptr, ptr %7, align 8, !tbaa !49
  %vfn.i.i.i.i.i.i = getelementptr inbounds i8, ptr %vtable.i.i.i.i.i.i, i64 24
  %11 = load ptr, ptr %vfn.i.i.i.i.i.i, align 8
  invoke void %11(ptr noundef nonnull align 8 dereferenceable(16) %7)
          to label %_ZN8QuantLib12InterestRateD2Ev.exit unwind label %terminate.lpad.i.i.i.i

terminate.lpad.i.i.i.i:                           ; preds = %if.then.i.i.i.i.i.i, %if.then.i.i.i.i.i
  %12 = landingpad { ptr, i32 }
          catch ptr null
  %13 = extractvalue { ptr, i32 } %12, 0
  call void @__clang_call_terminate(ptr %13) #30
  unreachable

_ZN8QuantLib12InterestRateD2Ev.exit:              ; preds = %invoke.cont11, %if.then.i.i.i.i, %.noexc.i.i.i.i, %if.then.i.i.i.i.i.i
  call void @llvm.lifetime.end.p0(i64 40, ptr nonnull %ref.tmp5) #29
  %pn.i.i.i10 = getelementptr inbounds nuw i8, ptr %ref.tmp, i64 16
  %14 = load ptr, ptr %pn.i.i.i10, align 8, !tbaa !31
  %cmp.not.i.i.i.i11 = icmp eq ptr %14, null
  br i1 %cmp.not.i.i.i.i11, label %_ZN8QuantLib12InterestRateD2Ev.exit25, label %if.then.i.i.i.i12

if.then.i.i.i.i12:                                ; preds = %_ZN8QuantLib12InterestRateD2Ev.exit
  %use_count_.i.i.i.i.i13 = getelementptr inbounds nuw i8, ptr %14, i64 8
  %15 = atomicrmw sub ptr %use_count_.i.i.i.i.i13, i32 1 acq_rel, align 4
  %cmp.i.i.i.i.i14 = icmp eq i32 %15, 1
  br i1 %cmp.i.i.i.i.i14, label %if.then.i.i.i.i.i15, label %_ZN8QuantLib12InterestRateD2Ev.exit25

if.then.i.i.i.i.i15:                              ; preds = %if.then.i.i.i.i12
  %vtable.i.i.i.i.i16 = load ptr, ptr %14, align 8, !tbaa !49
  %vfn.i.i.i.i.i17 = getelementptr inbounds i8, ptr %vtable.i.i.i.i.i16, i64 16
  %16 = load ptr, ptr %vfn.i.i.i.i.i17, align 8
  invoke void %16(ptr noundef nonnull align 8 dereferenceable(16) %14)
          to label %.noexc.i.i.i.i19 unwind label %terminate.lpad.i.i.i.i18

.noexc.i.i.i.i19:                                 ; preds = %if.then.i.i.i.i.i15
  %weak_count_.i.i.i.i.i.i20 = getelementptr inbounds nuw i8, ptr %14, i64 12
  %17 = atomicrmw sub ptr %weak_count_.i.i.i.i.i.i20, i32 1 acq_rel, align 4
  %cmp.i.i.i.i.i.i21 = icmp eq i32 %17, 1
  br i1 %cmp.i.i.i.i.i.i21, label %if.then.i.i.i.i.i.i22, label %_ZN8QuantLib12InterestRateD2Ev.exit25

if.then.i.i.i.i.i.i22:                            ; preds = %.noexc.i.i.i.i19
  %vtable.i.i.i.i.i.i23 = load ptr, ptr %14, align 8, !tbaa !49
  %vfn.i.i.i.i.i.i24 = getelementptr inbounds i8, ptr %vtable.i.i.i.i.i.i23, i64 24
  %18 = load ptr, ptr %vfn.i.i.i.i.i.i24, align 8
  invoke void %18(ptr noundef nonnull align 8 dereferenceable(16) %14)
          to label %_ZN8QuantLib12InterestRateD2Ev.exit25 unwind label %terminate.lpad.i.i.i.i18

terminate.lpad.i.i.i.i18:                         ; preds = %if.then.i.i.i.i.i.i22, %if.then.i.i.i.i.i15
  %19 = landingpad { ptr, i32 }
          catch ptr null
  %20 = extractvalue { ptr, i32 } %19, 0
  call void @__clang_call_terminate(ptr %20) #30
  unreachable

_ZN8QuantLib12InterestRateD2Ev.exit25:            ; preds = %_ZN8QuantLib12InterestRateD2Ev.exit, %if.then.i.i.i.i12, %.noexc.i.i.i.i19, %if.then.i.i.i.i.i.i22
  %neg = fmul double %call, -5.000000e-01
  %sub = fsub double %3, %6
  %21 = call double @llvm.fmuladd.f64(double %neg, double %call, double %sub)
  call void @llvm.lifetime.end.p0(i64 40, ptr nonnull %ref.tmp) #29
  ret double %21

lpad6:                                            ; preds = %cond.false.i7, %invoke.cont9, %_ZNK5boost10shared_ptrIN8QuantLib18YieldTermStructureEEptEv.exit
  %22 = landingpad { ptr, i32 }
          cleanup
  call void @llvm.lifetime.end.p0(i64 40, ptr nonnull %ref.tmp5) #29
  call void @_ZN8QuantLib12InterestRateD2Ev(ptr noundef nonnull align 8 dereferenceable(40) %ref.tmp) #29
  call void @llvm.lifetime.end.p0(i64 40, ptr nonnull %ref.tmp) #29
  resume { ptr, i32 } %22
}